target datalayout = "e-m:e-p270:32:32-p271:32:32-p272:64:64-i64:64-i128:128-f80:128-n8:16:32:64-S128"
target triple = "x86_64-pc-linux-gnu"

%"class.icu_77::UnicodeString" = type { %"class.icu_77::Replaceable", %"union.icu_77::UnicodeString::StackBufferOrFields" }
%"class.icu_77::Replaceable" = type { %"class.icu_77::UObject" }
%"class.icu_77::UObject" = type { ptr }
%"union.icu_77::UnicodeString::StackBufferOrFields" = type { %struct.anon.0, [32 x i8] }
%struct.anon.0 = type { i16, i32, i32, ptr }
%"class.icu_77::ConstChar16Ptr" = type { ptr }

; Function Attrs: inlinehint mustprogress nounwind uwtable
define linkonce_odr noundef ptr @_ZNK6icu_7714ConstChar16Ptr3getEv(ptr noundef nonnull align 8 dereferenceable(8) %0) #4 comdat align 2 {
  %2 = alloca ptr, align 8
  store ptr %0, ptr %2, align 8, !tbaa !35
  %3 = load ptr, ptr %2, align 8
  %4 = getelementptr inbounds nuw %"class.icu_77::ConstChar16Ptr", ptr %3, i32 0, i32 0
  %5 = load ptr, ptr %4, align 8, !tbaa !37
  ret ptr %5
}

; Function Attrs: inlinehint mustprogress nounwind uwtable
define linkonce_odr noundef i32 @_ZNK6icu_7713UnicodeString14getShortLengthEv(ptr noundef nonnull align 8 dereferenceable(64) %0) #4 comdat align 2 {
  %2 = alloca ptr, align 8
  store ptr %0, ptr %2, align 8, !tbaa !8
  %3 = load ptr, ptr %2, align 8
  %4 = getelementptr inbounds nuw %"class.icu_77::UnicodeString", ptr %3, i32 0, i32 1
  %5 = getelementptr inbounds nuw %struct.anon.0, ptr %4, i32 0, i32 0
  %6 = load i16, ptr %5, align 8, !tbaa !17
  %7 = sext i16 %6 to i32
  %8 = ashr i32 %7, 5
  ret i32 %8
}

; Function Attrs: inlinehint mustprogress nounwind uwtable
define linkonce_odr noundef signext i8 @_ZNK6icu_7713UnicodeString14hasShortLengthEv(ptr noundef nonnull align 8 dereferenceable(64) %0) #4 comdat align 2 {
  %2 = alloca ptr, align 8
  store ptr %0, ptr %2, align 8, !tbaa !8
  %3 = load ptr, ptr %2, align 8
  %4 = getelementptr inbounds nuw %"class.icu_77::UnicodeString", ptr %3, i32 0, i32 1
  %5 = getelementptr inbounds nuw %struct.anon.0, ptr %4, i32 0, i32 0
  %6 = load i16, ptr %5, align 8, !tbaa !17
  %7 = sext i16 %6 to i32
  %8 = icmp sge i32 %7, 0
  %9 = zext i1 %8 to i8
  ret i8 %9
}

; Function Attrs: inlinehint mustprogress uwtable
define linkonce_odr noundef ptr @_ZNK6icu_7714ConstChar16PtrcvPKDsEv(ptr noundef nonnull align 8 dereferenceable(8) %0) #6 comdat align 2 {
  %2 = alloca ptr, align 8
  store ptr %0, ptr %2, align 8, !tbaa !35
  %3 = load ptr, ptr %2, align 8
  %4 = call noundef ptr @_ZNK6icu_7714ConstChar16Ptr3getEv(ptr noundef nonnull align 8 dereferenceable(8) %3)
  ret ptr %4
}

; Function Attrs: inlinehint mustprogress uwtable
define linkonce_odr noundef i32 @_ZNK6icu_7713UnicodeString6lengthEv(ptr noundef nonnull align 8 dereferenceable(64) %0) #6 comdat align 2 {
  %2 = alloca ptr, align 8
  store ptr %0, ptr %2, align 8, !tbaa !8
  %3 = load ptr, ptr %2, align 8
  %4 = call noundef signext i8 @_ZNK6icu_7713UnicodeString14hasShortLengthEv(ptr noundef nonnull align 8 dereferenceable(64) %3)
  %5 = icmp ne i8 %4, 0
  br i1 %5, label %6, label %8

6:                                                ; preds = %1
  %7 = call noundef i32 @_ZNK6icu_7713UnicodeString14getShortLengthEv(ptr noundef nonnull align 8 dereferenceable(64) %3)
  br label %12

8:                                                ; preds = %1
  %9 = getelementptr inbounds nuw %"class.icu_77::UnicodeString", ptr %3, i32 0, i32 1
  %10 = getelementptr inbounds nuw %struct.anon.0, ptr %9, i32 0, i32 1
  %11 = load i32, ptr %10, align 4, !tbaa !17
  br label %12

12:                                               ; preds = %8, %6
  %13 = phi i32 [ %7, %6 ], [ %11, %8 ]
  ret i32 %13
}

; Function Attrs: inlinehint mustprogress nounwind uwtable
define linkonce_odr void @_ZN6icu_7714ConstChar16PtrD2Ev(ptr noundef nonnull align 8 dereferenceable(8) %0) unnamed_addr #4 comdat align 2 {
  %2 = alloca ptr, align 8
  store ptr %0, ptr %2, align 8, !tbaa !35
  %3 = load ptr, ptr %2, align 8
  %4 = getelementptr inbounds nuw %"class.icu_77::ConstChar16Ptr", ptr %3, i32 0, i32 0
  %5 = load ptr, ptr %4, align 8, !tbaa !37
  call void asm sideeffect "", "rm,~{memory},~{dirflag},~{fpsr},~{flags}"(ptr %5) #7, !srcloc !39
  ret void
}

; Function Attrs: inlinehint mustprogress uwtable
define linkonce_odr noundef nonnull align 8 dereferenceable(64) ptr @_ZN6icu_7713UnicodeString6appendENS_14ConstChar16PtrEi(ptr noundef nonnull align 8 dereferenceable(64) %0, ptr noundef %1, i32 noundef %2) #6 comdat align 2 {
  %4 = alloca ptr, align 8
  %5 = alloca ptr, align 8
  %6 = alloca i32, align 4
  store ptr %0, ptr %4, align 8, !tbaa !8
  store ptr %1, ptr %5, align 8, !tbaa !35
  store i32 %2, ptr %6, align 4, !tbaa !10
  %7 = load ptr, ptr %4, align 8
  %8 = call noundef ptr @_ZNK6icu_7714ConstChar16PtrcvPKDsEv(ptr noundef nonnull align 8 dereferenceable(8) %1)
  %9 = load i32, ptr %6, align 4, !tbaa !10
  %10 = call noundef nonnull align 8 dereferenceable(64) ptr @_ZN6icu_7713UnicodeString8doAppendEPKDsii(ptr noundef nonnull align 8 dereferenceable(64) %7, ptr noundef %8, i32 noundef 0, i32 noundef %9)
  ret ptr %10
}

; Function Attrs: inlinehint mustprogress nounwind uwtable
define linkonce_odr void @_ZN6icu_7714ConstChar16PtrC2EPKDs(ptr noundef nonnull align 8 dereferenceable(8) %0, ptr noundef %1) unnamed_addr #4 comdat align 2 {
  %3 = alloca ptr, align 8
  %4 = alloca ptr, align 8
  store ptr %0, ptr %3, align 8, !tbaa !35
  store ptr %1, ptr %4, align 8, !tbaa !15
  %5 = load ptr, ptr %3, align 8
  %6 = getelementptr inbounds nuw %"class.icu_77::ConstChar16Ptr", ptr %5, i32 0, i32 0
  %7 = load ptr, ptr %4, align 8, !tbaa !15
  store ptr %7, ptr %6, align 8, !tbaa !37
  ret void
}

; Function Attrs: inlinehint mustprogress nounwind uwtable
define linkonce_odr noundef i32 @_ZN6icu_7715SimpleFormatter16getArgumentLimitEPKDsi(ptr noundef %0, i32 noundef %1) #4 comdat align 2 {
  %3 = alloca ptr, align 8
  %4 = alloca i32, align 4
  store ptr %0, ptr %3, align 8, !tbaa !15
  store i32 %1, ptr %4, align 4, !tbaa !10
  %5 = load i32, ptr %4, align 4, !tbaa !10
  %6 = icmp eq i32 %5, 0
  br i1 %6, label %7, label %8

7:                                                ; preds = %2
  br label %13

8:                                                ; preds = %2
  %9 = load ptr, ptr %3, align 8, !tbaa !15
  %10 = getelementptr inbounds i16, ptr %9, i64 0
  %11 = load i16, ptr %10, align 2, !tbaa !18
  %12 = zext i16 %11 to i32
  br label %13

13:                                               ; preds = %8, %7
  %14 = phi i32 [ 0, %7 ], [ %12, %8 ]
  ret i32 %14
}

; Function Attrs: mustprogress uwtable
define void @_ZN6icu_7715SimpleFormatter22getTextWithNoArgumentsEPKDsiPii(ptr dead_on_unwind noalias writable sret(%"class.icu_77::UnicodeString") align 8 %0, ptr noundef %1, i32 noundef %2, ptr noundef %3, i32 noundef %4) #0 align 2 personality ptr @__gxx_personality_v0 {
  %6 = alloca ptr, align 8
  %7 = alloca ptr, align 8
  %8 = alloca i32, align 4
  %9 = alloca ptr, align 8
  %10 = alloca i32, align 4
  %11 = alloca i32, align 4
  %12 = alloca i32, align 4
  %13 = alloca i1, align 1
  %14 = alloca i32, align 4
  %15 = alloca i32, align 4
  %16 = alloca %"class.icu_77::ConstChar16Ptr", align 8
  %17 = alloca ptr, align 8
  %18 = alloca i32, align 4
  store ptr %0, ptr %6, align 8
  store ptr %1, ptr %7, align 8, !tbaa !15
  store i32 %2, ptr %8, align 4, !tbaa !10
  store ptr %3, ptr %9, align 8, !tbaa !26
  store i32 %4, ptr %10, align 4, !tbaa !10
  call void @llvm.lifetime.start.p0(i64 4, ptr %11) #7
  store i32 0, ptr %11, align 4, !tbaa !10
  br label %19

19:                                               ; preds = %29, %5
  %20 = load i32, ptr %11, align 4, !tbaa !10
  %21 = load i32, ptr %10, align 4, !tbaa !10
  %22 = icmp slt i32 %20, %21
  br i1 %22, label %24, label %23

23:                                               ; preds = %19
  call void @llvm.lifetime.end.p0(i64 4, ptr %11) #7
  br label %32

24:                                               ; preds = %19
  %25 = load ptr, ptr %9, align 8, !tbaa !26
  %26 = load i32, ptr %11, align 4, !tbaa !10
  %27 = sext i32 %26 to i64
  %28 = getelementptr inbounds i32, ptr %25, i64 %27
  store i32 -1, ptr %28, align 4, !tbaa !10
  br label %29

29:                                               ; preds = %24
  %30 = load i32, ptr %11, align 4, !tbaa !10
  %31 = add nsw i32 %30, 1
  store i32 %31, ptr %11, align 4, !tbaa !10
  br label %19, !llvm.loop !33

32:                                               ; preds = %23
  call void @llvm.lifetime.start.p0(i64 4, ptr %12) #7
  %33 = load i32, ptr %8, align 4, !tbaa !10
  %34 = sub nsw i32 %33, 1
  %35 = load ptr, ptr %7, align 8, !tbaa !15
  %36 = load i32, ptr %8, align 4, !tbaa !10
  %37 = call noundef i32 @_ZN6icu_7715SimpleFormatter16getArgumentLimitEPKDsi(ptr noundef %35, i32 noundef %36)
  %38 = sub nsw i32 %34, %37
  store i32 %38, ptr %12, align 4, !tbaa !10
  store i1 false, ptr %13, align 1
  %39 = load i32, ptr %12, align 4, !tbaa !10
  call void @_ZN6icu_7713UnicodeStringC1Eiii(ptr noundef nonnull align 8 dereferenceable(64) %0, i32 noundef %39, i32 noundef 0, i32 noundef 0)
  call void @llvm.lifetime.start.p0(i64 4, ptr %14) #7
  store i32 1, ptr %14, align 4, !tbaa !10
  br label %40

40:                                               ; preds = %89, %32
  %41 = load i32, ptr %14, align 4, !tbaa !10
  %42 = load i32, ptr %8, align 4, !tbaa !10
  %43 = icmp slt i32 %41, %42
  br i1 %43, label %45, label %44

44:                                               ; preds = %40
  call void @llvm.lifetime.end.p0(i64 4, ptr %14) #7
  br label %91

45:                                               ; preds = %40
  call void @llvm.lifetime.start.p0(i64 4, ptr %15) #7
  %46 = load ptr, ptr %7, align 8, !tbaa !15
  %47 = load i32, ptr %14, align 4, !tbaa !10
  %48 = add nsw i32 %47, 1
  store i32 %48, ptr %14, align 4, !tbaa !10
  %49 = sext i32 %47 to i64
  %50 = getelementptr inbounds i16, ptr %46, i64 %49
  %51 = load i16, ptr %50, align 2, !tbaa !18
  %52 = zext i16 %51 to i32
  store i32 %52, ptr %15, align 4, !tbaa !10
  %53 = load i32, ptr %15, align 4, !tbaa !10
  %54 = icmp sgt i32 %53, 256
  br i1 %54, label %55, label %77

55:                                               ; preds = %45
  %56 = load i32, ptr %15, align 4, !tbaa !10
  %57 = sub nsw i32 %56, 256
  store i32 %57, ptr %15, align 4, !tbaa !10
  %58 = load ptr, ptr %7, align 8, !tbaa !15
  %59 = load i32, ptr %14, align 4, !tbaa !10
  %60 = sext i32 %59 to i64
  %61 = getelementptr inbounds i16, ptr %58, i64 %60
  invoke void @_ZN6icu_7714ConstChar16PtrC2EPKDs(ptr noundef nonnull align 8 dereferenceable(8) %16, ptr noundef %61)
          to label %62 unwind label %69

62:                                               ; preds = %55
  %63 = load i32, ptr %15, align 4, !tbaa !10
  %64 = invoke noundef nonnull align 8 dereferenceable(64) ptr @_ZN6icu_7713UnicodeString6appendENS_14ConstChar16PtrEi(ptr noundef nonnull align 8 dereferenceable(64) %0, ptr noundef %16, i32 noundef %63)
          to label %65 unwind label %73

65:                                               ; preds = %62
  call void @_ZN6icu_7714ConstChar16PtrD2Ev(ptr noundef nonnull align 8 dereferenceable(8) %16) #7
  %66 = load i32, ptr %15, align 4, !tbaa !10
  %67 = load i32, ptr %14, align 4, !tbaa !10
  %68 = add nsw i32 %67, %66
  store i32 %68, ptr %14, align 4, !tbaa !10
  br label %89

69:                                               ; preds = %81, %55
  %70 = landingpad { ptr, i32 }
          cleanup
  %71 = extractvalue { ptr, i32 } %70, 0
  store ptr %71, ptr %17, align 8
  %72 = extractvalue { ptr, i32 } %70, 1
  store i32 %72, ptr %18, align 4
  br label %90

73:                                               ; preds = %62
  %74 = landingpad { ptr, i32 }
          cleanup
  %75 = extractvalue { ptr, i32 } %74, 0
  store ptr %75, ptr %17, align 8
  %76 = extractvalue { ptr, i32 } %74, 1
  store i32 %76, ptr %18, align 4
  call void @_ZN6icu_7714ConstChar16PtrD2Ev(ptr noundef nonnull align 8 dereferenceable(8) %16) #7
  br label %90

77:                                               ; preds = %45
  %78 = load i32, ptr %15, align 4, !tbaa !10
  %79 = load i32, ptr %10, align 4, !tbaa !10
  %80 = icmp slt i32 %78, %79
  br i1 %80, label %81, label %88

81:                                               ; preds = %77
  %82 = invoke noundef i32 @_ZNK6icu_7713UnicodeString6lengthEv(ptr noundef nonnull align 8 dereferenceable(64) %0)
          to label %83 unwind label %69

83:                                               ; preds = %81
  %84 = load ptr, ptr %9, align 8, !tbaa !26
  %85 = load i32, ptr %15, align 4, !tbaa !10
  %86 = sext i32 %85 to i64
  %87 = getelementptr inbounds i32, ptr %84, i64 %86
  store i32 %82, ptr %87, align 4, !tbaa !10
  br label %88

88:                                               ; preds = %83, %77
  br label %89

89:                                               ; preds = %88, %65
  call void @llvm.lifetime.end.p0(i64 4, ptr %15) #7
  br label %40, !llvm.loop !34

90:                                               ; preds = %73, %69
  call void @llvm.lifetime.end.p0(i64 4, ptr %15) #7
  call void @llvm.lifetime.end.p0(i64 4, ptr %14) #7
  call void @_ZN6icu_7713UnicodeStringD1Ev(ptr noundef nonnull align 8 dereferenceable(64) %0) #7
  call void @llvm.lifetime.end.p0(i64 4, ptr %12) #7
  br label %95

91:                                               ; preds = %44
  store i1 true, ptr %13, align 1
  %92 = load i1, ptr %13, align 1
  br i1 %92, label %94, label %93

93:                                               ; preds = %91
  call void @_ZN6icu_7713UnicodeStringD1Ev(ptr noundef nonnull align 8 dereferenceable(64) %0) #7
  br label %94

94:                                               ; preds = %93, %91
  call void @llvm.lifetime.end.p0(i64 4, ptr %12) #7
  ret void

95:                                               ; preds = %90
  %96 = load ptr, ptr %17, align 8
  %97 = load i32, ptr %18, align 4
  %98 = insertvalue { ptr, i32 } poison, ptr %96, 0
  %99 = insertvalue { ptr, i32 } %98, i32 %97, 1
  resume { ptr, i32 } %99
}