; Function Attrs: mustprogress uwtable
define void @_ZN6icu_7715SimpleFormatter22getTextWithNoArgumentsEPKDsiPii(ptr dead_on_unwind noalias writable sret(%"class.icu_77::UnicodeString") align 8 %0, ptr noundef %1, i32 noundef %2, ptr noundef writeonly captures(none) %3, i32 noundef %4) local_unnamed_addr #0 align 2 personality ptr @__gxx_personality_v0 {
  %6 = icmp sgt i32 %4, 0
  br i1 %6, label %.lr.ph.preheader, label %._crit_edge

.lr.ph.preheader:                                 ; preds = %5
  %7 = zext nneg i32 %4 to i64
  %8 = shl nuw nsw i64 %7, 2
  tail call void @llvm.memset.p0.i64(ptr align 4 %3, i8 -1, i64 %8, i1 false), !tbaa !18
  br label %._crit_edge

._crit_edge:                                      ; preds = %.lr.ph.preheader, %5
  %9 = icmp eq i32 %2, 0
  br i1 %9, label %_ZN6icu_7715SimpleFormatter16getArgumentLimitEPKDsi.exit.thread, label %_ZN6icu_7715SimpleFormatter16getArgumentLimitEPKDsi.exit

_ZN6icu_7715SimpleFormatter16getArgumentLimitEPKDsi.exit.thread: ; preds = %._crit_edge
  tail call void @_ZN6icu_7713UnicodeStringC1Eiii(ptr noundef nonnull align 8 dereferenceable(64) %0, i32 noundef -1, i32 noundef 0, i32 noundef 0)
  br label %._crit_edge38

_ZN6icu_7715SimpleFormatter16getArgumentLimitEPKDsi.exit: ; preds = %._crit_edge
  %10 = load i16, ptr %1, align 2, !tbaa !8
  %11 = zext i16 %10 to i32
  %12 = xor i32 %11, -1
  %13 = add i32 %2, %12
  tail call void @_ZN6icu_7713UnicodeStringC1Eiii(ptr noundef nonnull align 8 dereferenceable(64) %0, i32 noundef %13, i32 noundef 0, i32 noundef 0)
  %14 = icmp sgt i32 %2, 1
  br i1 %14, label %.lr.ph37, label %._crit_edge38

.lr.ph37:                                         ; preds = %_ZN6icu_7715SimpleFormatter16getArgumentLimitEPKDsi.exit
  %15 = getelementptr inbounds nuw i8, ptr %0, i64 8
  %16 = getelementptr inbounds nuw i8, ptr %0, i64 12
  br label %17

17:                                               ; preds = %.lr.ph37, %43
  %.02736 = phi i32 [ 1, %.lr.ph37 ], [ %.1, %43 ]
  %18 = add nsw i32 %.02736, 1
  %19 = sext i32 %.02736 to i64
  %20 = getelementptr inbounds i16, ptr %1, i64 %19
  %21 = load i16, ptr %20, align 2, !tbaa !8
  %22 = zext i16 %21 to i32
  %23 = icmp ugt i16 %21, 256
  br i1 %23, label %24, label %32

24:                                               ; preds = %17
  %25 = add nsw i32 %22, -256
  %26 = sext i32 %18 to i64
  %27 = getelementptr inbounds i16, ptr %1, i64 %26
  %28 = invoke noundef nonnull align 8 dereferenceable(64) ptr @_ZN6icu_7713UnicodeString8doAppendEPKDsii(ptr noundef nonnull align 8 dereferenceable(64) %0, ptr noundef nonnull %27, i32 noundef 0, i32 noundef %25)
          to label %_ZN6icu_7713UnicodeString6appendENS_14ConstChar16PtrEi.exit unwind label %30

_ZN6icu_7713UnicodeString6appendENS_14ConstChar16PtrEi.exit: ; preds = %24
  tail call void asm sideeffect "", "rm,~{memory},~{dirflag},~{fpsr},~{flags}"(ptr nonnull %27) #7, !srcloc !13
  %29 = add nsw i32 %25, %18
  br label %43

30:                                               ; preds = %24
  %31 = landingpad { ptr, i32 }
          cleanup
  tail call void asm sideeffect "", "rm,~{memory},~{dirflag},~{fpsr},~{flags}"(ptr nonnull %27) #7, !srcloc !13
  tail call void @_ZN6icu_7713UnicodeStringD1Ev(ptr noundef nonnull align 8 dereferenceable(64) %0) #7
  resume { ptr, i32 } %31

32:                                               ; preds = %17
  %33 = icmp sgt i32 %4, %22
  br i1 %33, label %34, label %43

34:                                               ; preds = %32
  %35 = load i16, ptr %15, align 8, !tbaa !7
  %36 = icmp slt i16 %35, 0
  %37 = ashr i16 %35, 5
  %38 = sext i16 %37 to i32
  %39 = load i32, ptr %16, align 4
  %40 = select i1 %36, i32 %39, i32 %38
  %41 = zext nneg i16 %21 to i64
  %42 = getelementptr inbounds nuw i32, ptr %3, i64 %41
  store i32 %40, ptr %42, align 4, !tbaa !18
  br label %43

43:                                               ; preds = %32, %34, %_ZN6icu_7713UnicodeString6appendENS_14ConstChar16PtrEi.exit
  %.1 = phi i32 [ %29, %_ZN6icu_7713UnicodeString6appendENS_14ConstChar16PtrEi.exit ], [ %18, %34 ], [ %18, %32 ]
  %44 = icmp slt i32 %.1, %2
  br i1 %44, label %17, label %._crit_edge38, !llvm.loop !23

._crit_edge38:                                    ; preds = %43, %_ZN6icu_7715SimpleFormatter16getArgumentLimitEPKDsi.exit.thread, %_ZN6icu_7715SimpleFormatter16getArgumentLimitEPKDsi.exit
  ret void
}